target datalayout = "e-m:e-p270:32:32-p271:32:32-p272:64:64-i64:64-i128:128-f80:128-n8:16:32:64-S128"
target triple = "x86_64-pc-linux-gnu"

%struct.Vec_Ptr_t_ = type { i32, i32, ptr }
%struct.Vec_Flt_t_ = type { i32, i32, ptr }

@.str.87 = private unnamed_addr constant [34 x i8] c"There are %d slew/load templates\0A\00", align 1
@.str.88 = private unnamed_addr constant [4 x i8] c"%s\0A\00", align 1
@.str.89 = private unnamed_addr constant [4 x i8] c"%d\0A\00", align 1
@.str.90 = private unnamed_addr constant [2 x i8] c"\0A\00", align 1
@.str.113 = private unnamed_addr constant [25 x i8] c"Vector has %d entries: {\00", align 1
@.str.114 = private unnamed_addr constant [4 x i8] c" %f\00", align 1
@.str.115 = private unnamed_addr constant [4 x i8] c" }\0A\00", align 1

; Function Attrs: nounwind uwtable
define internal float @Vec_FltEntry(ptr noundef %0, i32 noundef %1) #0 {
  %3 = alloca ptr, align 8
  %4 = alloca i32, align 4
  store ptr %0, ptr %3, align 8
  store i32 %1, ptr %4, align 4
  %5 = load ptr, ptr %3, align 8
  %6 = getelementptr inbounds %struct.Vec_Flt_t_, ptr %5, i32 0, i32 2
  %7 = load ptr, ptr %6, align 8
  %8 = load i32, ptr %4, align 4
  %9 = sext i32 %8 to i64
  %10 = getelementptr inbounds float, ptr %7, i64 %9
  %11 = load float, ptr %10, align 4
  ret float %11
}

; Function Attrs: nounwind uwtable
define internal i32 @Vec_FltSize(ptr noundef %0) #0 {
  %2 = alloca ptr, align 8
  store ptr %0, ptr %2, align 8
  %3 = load ptr, ptr %2, align 8
  %4 = getelementptr inbounds %struct.Vec_Flt_t_, ptr %3, i32 0, i32 1
  %5 = load i32, ptr %4, align 4
  ret i32 %5
}

; Function Attrs: nounwind uwtable
define internal void @Vec_FltPrint(ptr noundef %0) #0 {
  %2 = alloca ptr, align 8
  %3 = alloca i32, align 4
  %4 = alloca float, align 4
  store ptr %0, ptr %2, align 8
  %5 = load ptr, ptr %2, align 8
  %6 = call i32 @Vec_FltSize(ptr noundef %5)
  %7 = call i32 (ptr, ...) @printf(ptr noundef @.str.113, i32 noundef %6)
  store i32 0, ptr %3, align 4
  br label %8

8:                                                ; preds = %23, %1
  %9 = load i32, ptr %3, align 4
  %10 = load ptr, ptr %2, align 8
  %11 = call i32 @Vec_FltSize(ptr noundef %10)
  %12 = icmp slt i32 %9, %11
  br i1 %12, label %13, label %17

13:                                               ; preds = %8
  %14 = load ptr, ptr %2, align 8
  %15 = load i32, ptr %3, align 4
  %16 = call float @Vec_FltEntry(ptr noundef %14, i32 noundef %15)
  store float %16, ptr %4, align 4
  br label %17

17:                                               ; preds = %13, %8
  %18 = phi i1 [ false, %8 ], [ true, %13 ]
  br i1 %18, label %19, label %26

19:                                               ; preds = %17
  %20 = load float, ptr %4, align 4
  %21 = fpext float %20 to double
  %22 = call i32 (ptr, ...) @printf(ptr noundef @.str.114, double noundef %21)
  br label %23

23:                                               ; preds = %19
  %24 = load i32, ptr %3, align 4
  %25 = add nsw i32 %24, 1
  store i32 %25, ptr %3, align 4
  br label %8, !llvm.loop !91

26:                                               ; preds = %17
  %27 = call i32 (ptr, ...) @printf(ptr noundef @.str.115)
  ret void
}

; Function Attrs: nounwind uwtable
define internal ptr @Vec_PtrEntry(ptr noundef %0, i32 noundef %1) #0 {
  %3 = alloca ptr, align 8
  %4 = alloca i32, align 4
  store ptr %0, ptr %3, align 8
  store i32 %1, ptr %4, align 4
  %5 = load ptr, ptr %3, align 8
  %6 = getelementptr inbounds %struct.Vec_Ptr_t_, ptr %5, i32 0, i32 2
  %7 = load ptr, ptr %6, align 8
  %8 = load i32, ptr %4, align 4
  %9 = sext i32 %8 to i64
  %10 = getelementptr inbounds ptr, ptr %7, i64 %9
  %11 = load ptr, ptr %10, align 8
  ret ptr %11
}

; Function Attrs: nounwind uwtable
define internal i32 @Vec_PtrSize(ptr noundef %0) #0 {
  %2 = alloca ptr, align 8
  store ptr %0, ptr %2, align 8
  %3 = load ptr, ptr %2, align 8
  %4 = getelementptr inbounds %struct.Vec_Ptr_t_, ptr %3, i32 0, i32 1
  %5 = load i32, ptr %4, align 4
  ret i32 %5
}

; Function Attrs: nounwind uwtable
define void @Scl_LibertyPrintTemplates(ptr noundef %0) #0 {
  %2 = alloca ptr, align 8
  %3 = alloca ptr, align 8
  %4 = alloca i32, align 4
  store ptr %0, ptr %2, align 8
  %5 = load ptr, ptr %2, align 8
  %6 = call i32 @Vec_PtrSize(ptr noundef %5)
  %7 = srem i32 %6, 4
  %8 = call i32 (ptr, ...) @printf(ptr noundef @.str.87, i32 noundef %7)
  store i32 0, ptr %4, align 4
  br label %9

9:                                                ; preds = %55, %1
  %10 = load i32, ptr %4, align 4
  %11 = load ptr, ptr %2, align 8
  %12 = call i32 @Vec_PtrSize(ptr noundef %11)
  %13 = icmp slt i32 %10, %12
  br i1 %13, label %14, label %18

14:                                               ; preds = %9
  %15 = load ptr, ptr %2, align 8
  %16 = load i32, ptr %4, align 4
  %17 = call ptr @Vec_PtrEntry(ptr noundef %15, i32 noundef %16)
  store ptr %17, ptr %3, align 8
  br label %18

18:                                               ; preds = %14, %9
  %19 = phi i1 [ false, %9 ], [ true, %14 ]
  br i1 %19, label %20, label %58

20:                                               ; preds = %18
  %21 = load i32, ptr %4, align 4
  %22 = srem i32 %21, 4
  %23 = icmp eq i32 %22, 0
  br i1 %23, label %24, label %27

24:                                               ; preds = %20
  %25 = load ptr, ptr %3, align 8
  %26 = call i32 (ptr, ...) @printf(ptr noundef @.str.88, ptr noundef %25)
  br label %48

27:                                               ; preds = %20
  %28 = load i32, ptr %4, align 4
  %29 = srem i32 %28, 4
  %30 = icmp eq i32 %29, 1
  br i1 %30, label %31, label %36

31:                                               ; preds = %27
  %32 = load ptr, ptr %3, align 8
  %33 = icmp ne ptr %32, null
  %34 = zext i1 %33 to i32
  %35 = call i32 (ptr, ...) @printf(ptr noundef @.str.89, i32 noundef %34)
  br label %47

36:                                               ; preds = %27
  %37 = load i32, ptr %4, align 4
  %38 = srem i32 %37, 4
  %39 = icmp eq i32 %38, 2
  br i1 %39, label %44, label %40

40:                                               ; preds = %36
  %41 = load i32, ptr %4, align 4
  %42 = srem i32 %41, 4
  %43 = icmp eq i32 %42, 3
  br i1 %43, label %44, label %46

44:                                               ; preds = %40, %36
  %45 = load ptr, ptr %3, align 8
  call void @Vec_FltPrint(ptr noundef %45)
  br label %46

46:                                               ; preds = %44, %40
  br label %47

47:                                               ; preds = %46, %31
  br label %48

48:                                               ; preds = %47, %24
  %49 = load i32, ptr %4, align 4
  %50 = srem i32 %49, 4
  %51 = icmp eq i32 %50, 3
  br i1 %51, label %52, label %54

52:                                               ; preds = %48
  %53 = call i32 (ptr, ...) @printf(ptr noundef @.str.90)
  br label %54

54:                                               ; preds = %52, %48
  br label %55

55:                                               ; preds = %54
  %56 = load i32, ptr %4, align 4
  %57 = add nsw i32 %56, 1
  store i32 %57, ptr %4, align 4
  br label %9, !llvm.loop !90

58:                                               ; preds = %18
  ret void
}