; Function Attrs: nofree nounwind uwtable
define void @Scl_LibertyPrintTemplates(ptr noundef readonly captures(none) %0) local_unnamed_addr #0 {
  %2 = getelementptr i8, ptr %0, i64 4
  %.val14 = load i32, ptr %2, align 4
  %3 = srem i32 %.val14, 4
  %4 = tail call i32 (ptr, ...) @printf(ptr noundef nonnull dereferenceable(1) @.str.87, i32 noundef %3)
  %.val16 = load i32, ptr %2, align 4
  %5 = icmp sgt i32 %.val16, 0
  br i1 %5, label %.lr.ph, label %.critedge

.lr.ph:                                           ; preds = %1
  %6 = getelementptr i8, ptr %0, i64 8
  br label %7

7:                                                ; preds = %.lr.ph, %.thread
  %indvars.iv = phi i64 [ 0, %.lr.ph ], [ %indvars.iv.next, %.thread ]
  %.val15 = load ptr, ptr %6, align 8
  %8 = getelementptr inbounds nuw ptr, ptr %.val15, i64 %indvars.iv
  %9 = load ptr, ptr %8, align 8
  %10 = trunc nuw nsw i64 %indvars.iv to i32
  %11 = and i32 %10, 3
  switch i32 %11, label %default.unreachable [
    i32 0, label %12
    i32 1, label %13
    i32 2, label %17
    i32 3, label %17
  ]

12:                                               ; preds = %7
  %puts = tail call i32 @puts(ptr nonnull dereferenceable(1) %9)
  br label %.thread

13:                                               ; preds = %7
  %14 = icmp ne ptr %9, null
  %15 = zext i1 %14 to i32
  %16 = tail call i32 (ptr, ...) @printf(ptr noundef nonnull dereferenceable(1) @.str.89, i32 noundef %15)
  br label %.thread

17:                                               ; preds = %7, %7
  %18 = getelementptr i8, ptr %9, i64 4
  %.val6.i = load i32, ptr %18, align 4
  %19 = tail call i32 (ptr, ...) @printf(ptr noundef nonnull dereferenceable(1) @.str.113, i32 noundef %.val6.i)
  %.val8.i = load i32, ptr %18, align 4
  %20 = icmp sgt i32 %.val8.i, 0
  br i1 %20, label %.lr.ph.i, label %.loopexit

.lr.ph.i:                                         ; preds = %17
  %21 = getelementptr i8, ptr %9, i64 8
  br label %22

22:                                               ; preds = %22, %.lr.ph.i
  %indvars.iv.i = phi i64 [ 0, %.lr.ph.i ], [ %indvars.iv.next.i, %22 ]
  %.val7.i = load ptr, ptr %21, align 8
  %23 = getelementptr inbounds nuw float, ptr %.val7.i, i64 %indvars.iv.i
  %24 = load float, ptr %23, align 4
  %25 = fpext float %24 to double
  %26 = tail call i32 (ptr, ...) @printf(ptr noundef nonnull dereferenceable(1) @.str.114, double noundef %25)
  %indvars.iv.next.i = add nuw nsw i64 %indvars.iv.i, 1
  %.val.i = load i32, ptr %18, align 4
  %27 = sext i32 %.val.i to i64
  %28 = icmp slt i64 %indvars.iv.next.i, %27
  br i1 %28, label %22, label %.loopexit, !llvm.loop !90

.loopexit:                                        ; preds = %22, %17
  %puts.i = tail call i32 @puts(ptr nonnull dereferenceable(1) @str.10)
  %29 = icmp eq i32 %11, 3
  br i1 %29, label %30, label %.thread

30:                                               ; preds = %.loopexit
  %putchar = tail call i32 @putchar(i32 10)
  br label %.thread

default.unreachable:                              ; preds = %7
  unreachable

.thread:                                          ; preds = %12, %13, %.loopexit, %30
  %indvars.iv.next = add nuw nsw i64 %indvars.iv, 1
  %.val = load i32, ptr %2, align 4
  %31 = sext i32 %.val to i64
  %32 = icmp slt i64 %indvars.iv.next, %31
  br i1 %32, label %7, label %.critedge, !llvm.loop !91

.critedge:                                        ; preds = %.thread, %1
  ret void
}